target datalayout = "e-m:e-p270:32:32-p271:32:32-p272:64:64-i64:64-i128:128-f80:128-n8:16:32:64-S128"
target triple = "x86_64-pc-linux-gnu"

%struct.H5D_chk_idx_info_t = type { ptr, ptr, ptr, ptr }
%struct.H5O_storage_chunk_t = type { i32, i64, ptr, %union.anon }
%union.anon = type { %struct.H5O_storage_chunk_btree_t }
%struct.H5O_storage_chunk_btree_t = type { i64, ptr }
%struct.H5O_storage_chunk_bt2_t = type { i64, ptr }

@.str.2 = private unnamed_addr constant [103 x i8] c"generated/home/dtcxzyw/WorkSpace/Projects/compilers/llvm-opt-benchmark/bench/hdf5/hdf5/src/H5Dbtree2.c\00", align 1
@H5E_DATASET_g = external global i64, align 8
@__func__.H5D__bt2_idx_close = private unnamed_addr constant [19 x i8] c"H5D__bt2_idx_close\00", align 1
@H5E_CANTCLOSEOBJ_g = external global i64, align 8
@.str.27 = private unnamed_addr constant [26 x i8] c"unable to close v2 B-tree\00", align 1
@H5E_CANTOPENOBJ_g = external global i64, align 8
@.str.29 = private unnamed_addr constant [35 x i8] c"can't patch v2 B-tree file pointer\00", align 1
@__func__.H5D__bt2_idx_dest = private unnamed_addr constant [18 x i8] c"H5D__bt2_idx_dest\00", align 1
@.str.42 = private unnamed_addr constant [22 x i8] c"can't close v2 B-tree\00", align 1

; Function Attrs: nounwind uwtable
define internal i32 @H5D__bt2_idx_close(ptr noundef %0) #0 {
  %2 = alloca ptr, align 8
  %3 = alloca i32, align 4
  %4 = alloca i8, align 1
  store ptr %0, ptr %2, align 8
  store i32 0, ptr %3, align 4
  store i8 0, ptr %4, align 1
  %5 = load ptr, ptr %2, align 8
  %6 = getelementptr inbounds %struct.H5D_chk_idx_info_t, ptr %5, i32 0, i32 3
  %7 = load ptr, ptr %6, align 8
  %8 = getelementptr inbounds %struct.H5O_storage_chunk_t, ptr %7, i32 0, i32 3
  %9 = getelementptr inbounds %struct.H5O_storage_chunk_bt2_t, ptr %8, i32 0, i32 1
  %10 = load ptr, ptr %9, align 8
  %11 = call i32 @H5B2_close(ptr noundef %10)
  %12 = icmp slt i32 %11, 0
  br i1 %12, label %13, label %28

13:                                               ; preds = %1
  br label %14

14:                                               ; preds = %13
  br label %15

15:                                               ; preds = %14
  br label %16

16:                                               ; preds = %15
  %17 = load i64, ptr @H5E_DATASET_g, align 8
  %18 = load i64, ptr @H5E_CANTCLOSEOBJ_g, align 8
  %19 = call i32 (ptr, ptr, i32, i64, i64, ptr, ...) @H5E_printf_stack(ptr noundef @.str.2, ptr noundef @__func__.H5D__bt2_idx_close, i32 noundef 793, i64 noundef %17, i64 noundef %18, ptr noundef @.str.27)
  br label %20

20:                                               ; preds = %16
  store i8 1, ptr %4, align 1
  %21 = load i8, ptr %4, align 1
  %22 = trunc i8 %21 to i1
  %23 = zext i1 %22 to i8
  store i8 %23, ptr %4, align 1
  br label %24

24:                                               ; preds = %20
  br label %25

25:                                               ; preds = %24
  store i32 -1, ptr %3, align 4
  br label %34

26:                                               ; No predecessors!
  br label %27

27:                                               ; preds = %26
  br label %28

28:                                               ; preds = %27, %1
  %29 = load ptr, ptr %2, align 8
  %30 = getelementptr inbounds %struct.H5D_chk_idx_info_t, ptr %29, i32 0, i32 3
  %31 = load ptr, ptr %30, align 8
  %32 = getelementptr inbounds %struct.H5O_storage_chunk_t, ptr %31, i32 0, i32 3
  %33 = getelementptr inbounds %struct.H5O_storage_chunk_bt2_t, ptr %32, i32 0, i32 1
  store ptr null, ptr %33, align 8
  br label %34

34:                                               ; preds = %28, %25
  %35 = load i32, ptr %3, align 4
  ret i32 %35
}

; Function Attrs: nounwind uwtable
define internal i32 @H5D__bt2_idx_dest(ptr noundef %0) #0 {
  %2 = alloca ptr, align 8
  %3 = alloca i32, align 4
  %4 = alloca i8, align 1
  store ptr %0, ptr %2, align 8
  store i32 0, ptr %3, align 4
  store i8 0, ptr %4, align 1
  %5 = load ptr, ptr %2, align 8
  %6 = getelementptr inbounds %struct.H5D_chk_idx_info_t, ptr %5, i32 0, i32 3
  %7 = load ptr, ptr %6, align 8
  %8 = getelementptr inbounds %struct.H5O_storage_chunk_t, ptr %7, i32 0, i32 3
  %9 = getelementptr inbounds %struct.H5O_storage_chunk_bt2_t, ptr %8, i32 0, i32 1
  %10 = load ptr, ptr %9, align 8
  %11 = icmp ne ptr null, %10
  br i1 %11, label %12, label %59

12:                                               ; preds = %1
  %13 = load ptr, ptr %2, align 8
  %14 = getelementptr inbounds %struct.H5D_chk_idx_info_t, ptr %13, i32 0, i32 3
  %15 = load ptr, ptr %14, align 8
  %16 = getelementptr inbounds %struct.H5O_storage_chunk_t, ptr %15, i32 0, i32 3
  %17 = getelementptr inbounds %struct.H5O_storage_chunk_bt2_t, ptr %16, i32 0, i32 1
  %18 = load ptr, ptr %17, align 8
  %19 = load ptr, ptr %2, align 8
  %20 = getelementptr inbounds %struct.H5D_chk_idx_info_t, ptr %19, i32 0, i32 0
  %21 = load ptr, ptr %20, align 8
  %22 = call i32 @H5B2_patch_file(ptr noundef %18, ptr noundef %21)
  %23 = icmp slt i32 %22, 0
  br i1 %23, label %24, label %39

24:                                               ; preds = %12
  br label %25

25:                                               ; preds = %24
  br label %26

26:                                               ; preds = %25
  br label %27

27:                                               ; preds = %26
  %28 = load i64, ptr @H5E_DATASET_g, align 8
  %29 = load i64, ptr @H5E_CANTOPENOBJ_g, align 8
  %30 = call i32 (ptr, ptr, i32, i64, i64, ptr, ...) @H5E_printf_stack(ptr noundef @.str.2, ptr noundef @__func__.H5D__bt2_idx_dest, i32 noundef 1553, i64 noundef %28, i64 noundef %29, ptr noundef @.str.29)
  br label %31

31:                                               ; preds = %27
  store i8 1, ptr %4, align 1
  %32 = load i8, ptr %4, align 1
  %33 = trunc i8 %32 to i1
  %34 = zext i1 %33 to i8
  store i8 %34, ptr %4, align 1
  br label %35

35:                                               ; preds = %31
  br label %36

36:                                               ; preds = %35
  store i32 -1, ptr %3, align 4
  br label %60

37:                                               ; No predecessors!
  br label %38

38:                                               ; preds = %37
  br label %39

39:                                               ; preds = %38, %12
  %40 = load ptr, ptr %2, align 8
  %41 = call i32 @H5D__bt2_idx_close(ptr noundef %40)
  %42 = icmp slt i32 %41, 0
  br i1 %42, label %43, label %58

43:                                               ; preds = %39
  br label %44

44:                                               ; preds = %43
  br label %45

45:                                               ; preds = %44
  br label %46

46:                                               ; preds = %45
  %47 = load i64, ptr @H5E_DATASET_g, align 8
  %48 = load i64, ptr @H5E_CANTCLOSEOBJ_g, align 8
  %49 = call i32 (ptr, ptr, i32, i64, i64, ptr, ...) @H5E_printf_stack(ptr noundef @.str.2, ptr noundef @__func__.H5D__bt2_idx_dest, i32 noundef 1557, i64 noundef %47, i64 noundef %48, ptr noundef @.str.42)
  br label %50

50:                                               ; preds = %46
  store i8 1, ptr %4, align 1
  %51 = load i8, ptr %4, align 1
  %52 = trunc i8 %51 to i1
  %53 = zext i1 %52 to i8
  store i8 %53, ptr %4, align 1
  br label %54

54:                                               ; preds = %50
  br label %55

55:                                               ; preds = %54
  store i32 -1, ptr %3, align 4
  br label %60

56:                                               ; No predecessors!
  br label %57

57:                                               ; preds = %56
  br label %58

58:                                               ; preds = %57, %39
  br label %59

59:                                               ; preds = %58, %1
  br label %60

60:                                               ; preds = %59, %55, %36
  %61 = load i32, ptr %3, align 4
  ret i32 %61
}